target datalayout = "e-m:e-p270:32:32-p271:32:32-p272:64:64-i64:64-i128:128-f80:128-n8:16:32:64-S128"
target triple = "x86_64-pc-linux-gnu"

%"struct.Gluco2::Lit" = type { i32 }
%"class.Gluco2::vec.0" = type { ptr, i32, i32 }
%"class.Gluco2::Solver" = type { ptr, i32, ptr, ptr, i32, i8, ptr, i64, %"class.Gluco2::vec", %"class.Gluco2::vec.0", i32, %"class.Gluco2::vec.1", %"class.Gluco2::vec.0", i32, i32, i32, double, double, double, double, i32, i32, i32, i32, i32, i32, double, double, double, double, i32, i32, i8, i8, double, ptr, i8, i64, i64, i64, i64, i64, i64, i64, i64, i64, i64, i64, i64, i64, i64, i64, i64, i64, i64, i64, i64, i64, i64, i32, i8, double, %"class.Gluco2::vec.2", double, %"class.Gluco2::OccLists", %"class.Gluco2::OccLists", %"class.Gluco2::vec.5", %"class.Gluco2::vec.5", %"class.Gluco2::vec.1", %"class.Gluco2::vec.4", %"class.Gluco2::vec.4", %"class.Gluco2::vec.0", %"class.Gluco2::vec", %"class.Gluco2::vec", %"class.Gluco2::vec.6", i32, i32, i64, %"class.Gluco2::vec.0", %"class.Gluco2::Heap", double, i8, %"class.Gluco2::vec.5", %"class.Gluco2::vec.0", %"class.Gluco2::ClauseAllocator", i32, %"class.Gluco2::bqueue", %"class.Gluco2::bqueue", float, i32, %"class.Gluco2::vec.4", %"class.Gluco2::vec.0", %"class.Gluco2::vec.0", %"class.Gluco2::vec.0", i32, double, double, i32, i64, i64, i8, i32, i32, double, double, i32, i32, %"class.Gluco2::vec", %"class.Gluco2::vec", i8, %"class.Gluco2::vec.7", %"class.Gluco2::vec.5", %"class.Gluco2::vec.0", %"class.Gluco2::vec.0", i32, i32, i32, i32, %"class.Gluco2::Heap2", %"class.Gluco2::vec", %"class.Gluco2::vec", i32, %"class.Gluco2::vec", %"class.Gluco2::vec.0" }
%"class.Gluco2::vec.2" = type { ptr, i32, i32 }
%"class.Gluco2::OccLists" = type { %"class.Gluco2::vec.3", %"class.Gluco2::vec.4", %"class.Gluco2::vec.0", %"struct.Gluco2::Solver::WatcherDeleted" }
%"class.Gluco2::vec.3" = type { ptr, i32, i32 }
%"struct.Gluco2::Solver::WatcherDeleted" = type { ptr }
%"class.Gluco2::vec.1" = type { ptr, i32, i32 }
%"class.Gluco2::vec.6" = type { ptr, i32, i32 }
%"class.Gluco2::Heap" = type { %"struct.Gluco2::Solver::VarOrderLt", %"class.Gluco2::vec", %"class.Gluco2::vec" }
%"struct.Gluco2::Solver::VarOrderLt" = type { ptr }
%"class.Gluco2::ClauseAllocator" = type { %"class.Gluco2::RegionAllocator.base", i8, [3 x i8] }
%"class.Gluco2::RegionAllocator.base" = type <{ ptr, i32, i32, i32 }>
%"class.Gluco2::bqueue" = type { %"class.Gluco2::vec.5", i32, i32, i64, i32, i32, i8, double, double }
%"class.Gluco2::vec.7" = type { ptr, i32, i32 }
%"class.Gluco2::Heap2" = type { %"struct.Gluco2::Solver::JustOrderLt2", %"class.Gluco2::vec.8", %"class.Gluco2::vec" }
%"struct.Gluco2::Solver::JustOrderLt2" = type { ptr }
%"class.Gluco2::vec.8" = type { ptr, i32, i32 }
%"class.Gluco2::vec.5" = type { ptr, i32, i32 }
%"class.Gluco2::vec" = type { ptr, i32, i32 }
%"class.Gluco2::vec.4" = type { ptr, i32, i32 }
%"class.Gluco2::lbool" = type { i8 }

@_ZTIN6Gluco220OutOfMemoryExceptionE = linkonce_odr constant { ptr, ptr } { ptr getelementptr inbounds (ptr, ptr @_ZTVN10__cxxabiv117__class_type_infoE, i64 2), ptr @_ZTSN6Gluco220OutOfMemoryExceptionE }, comdat, align 8

; Function Attrs: mustprogress nounwind uwtable
define linkonce_odr noundef i32 @_ZN6Gluco23vecIiE4imaxEii(i32 noundef %0, i32 noundef %1) #2 comdat align 2 {
  %3 = alloca i32, align 4
  %4 = alloca i32, align 4
  %5 = alloca i32, align 4
  store i32 %0, ptr %3, align 4
  store i32 %1, ptr %4, align 4
  %6 = load i32, ptr %4, align 4
  %7 = load i32, ptr %3, align 4
  %8 = sub nsw i32 %6, %7
  %9 = ashr i32 %8, 31
  store i32 %9, ptr %5, align 4
  %10 = load i32, ptr %3, align 4
  %11 = load i32, ptr %5, align 4
  %12 = and i32 %10, %11
  %13 = load i32, ptr %4, align 4
  %14 = load i32, ptr %5, align 4
  %15 = xor i32 %14, -1
  %16 = and i32 %13, %15
  %17 = add nsw i32 %12, %16
  ret i32 %17
}

; Function Attrs: mustprogress uwtable
define linkonce_odr i8 @_ZNK6Gluco25lbooleoEb(ptr noundef nonnull align 1 dereferenceable(1) %0, i1 noundef zeroext %1) #1 comdat align 2 {
  %3 = alloca %"class.Gluco2::lbool", align 1
  %4 = alloca ptr, align 8
  %5 = alloca i8, align 1
  store ptr %0, ptr %4, align 8
  %6 = zext i1 %1 to i8
  store i8 %6, ptr %5, align 1
  %7 = load ptr, ptr %4, align 8
  %8 = getelementptr inbounds %"class.Gluco2::lbool", ptr %7, i32 0, i32 0
  %9 = load i8, ptr %8, align 1
  %10 = zext i8 %9 to i32
  %11 = load i8, ptr %5, align 1
  %12 = trunc i8 %11 to i1
  %13 = zext i1 %12 to i8
  %14 = zext i8 %13 to i32
  %15 = xor i32 %10, %14
  %16 = trunc i32 %15 to i8
  call void @_ZN6Gluco25lboolC2Eh(ptr noundef nonnull align 1 dereferenceable(1) %3, i8 noundef zeroext %16)
  %17 = getelementptr inbounds %"class.Gluco2::lbool", ptr %3, i32 0, i32 0
  %18 = load i8, ptr %17, align 1
  ret i8 %18
}

; Function Attrs: mustprogress nounwind uwtable
define linkonce_odr noundef zeroext i1 @_ZN6Gluco24signENS_3LitE(i32 %0) #2 comdat {
  %2 = alloca %"struct.Gluco2::Lit", align 4
  %3 = getelementptr inbounds %"struct.Gluco2::Lit", ptr %2, i32 0, i32 0
  store i32 %0, ptr %3, align 4
  %4 = getelementptr inbounds %"struct.Gluco2::Lit", ptr %2, i32 0, i32 0
  %5 = load i32, ptr %4, align 4
  %6 = and i32 %5, 1
  %7 = icmp ne i32 %6, 0
  ret i1 %7
}

; Function Attrs: mustprogress nounwind uwtable
define linkonce_odr noundef nonnull align 1 dereferenceable(1) ptr @_ZNK6Gluco23vecINS_5lboolEEixEi(ptr noundef nonnull align 8 dereferenceable(16) %0, i32 noundef %1) #2 comdat align 2 {
  %3 = alloca ptr, align 8
  %4 = alloca i32, align 4
  store ptr %0, ptr %3, align 8
  store i32 %1, ptr %4, align 4
  %5 = load ptr, ptr %3, align 8
  %6 = getelementptr inbounds %"class.Gluco2::vec.1", ptr %5, i32 0, i32 0
  %7 = load ptr, ptr %6, align 8
  %8 = load i32, ptr %4, align 4
  %9 = sext i32 %8 to i64
  %10 = getelementptr inbounds %"class.Gluco2::lbool", ptr %7, i64 %9
  ret ptr %10
}

; Function Attrs: mustprogress nounwind uwtable
define linkonce_odr noundef i32 @_ZN6Gluco23varENS_3LitE(i32 %0) #2 comdat {
  %2 = alloca %"struct.Gluco2::Lit", align 4
  %3 = getelementptr inbounds %"struct.Gluco2::Lit", ptr %2, i32 0, i32 0
  store i32 %0, ptr %3, align 4
  %4 = getelementptr inbounds %"struct.Gluco2::Lit", ptr %2, i32 0, i32 0
  %5 = load i32, ptr %4, align 4
  %6 = ashr i32 %5, 1
  ret i32 %6
}

; Function Attrs: mustprogress uwtable
define linkonce_odr void @_ZN6Gluco23vecIiE8capacityEi(ptr noundef nonnull align 8 dereferenceable(16) %0, i32 noundef %1) #1 comdat align 2 {
  %3 = alloca ptr, align 8
  %4 = alloca i32, align 4
  %5 = alloca i32, align 4
  store ptr %0, ptr %3, align 8
  store i32 %1, ptr %4, align 4
  %6 = load ptr, ptr %3, align 8
  %7 = getelementptr inbounds %"class.Gluco2::vec", ptr %6, i32 0, i32 2
  %8 = load i32, ptr %7, align 4
  %9 = load i32, ptr %4, align 4
  %10 = icmp sge i32 %8, %9
  br i1 %10, label %11, label %12

11:                                               ; preds = %2
  br label %48

12:                                               ; preds = %2
  %13 = load i32, ptr %4, align 4
  %14 = getelementptr inbounds %"class.Gluco2::vec", ptr %6, i32 0, i32 2
  %15 = load i32, ptr %14, align 4
  %16 = sub nsw i32 %13, %15
  %17 = add nsw i32 %16, 1
  %18 = and i32 %17, -2
  %19 = getelementptr inbounds %"class.Gluco2::vec", ptr %6, i32 0, i32 2
  %20 = load i32, ptr %19, align 4
  %21 = ashr i32 %20, 1
  %22 = add nsw i32 %21, 2
  %23 = and i32 %22, -2
  %24 = call noundef i32 @_ZN6Gluco23vecIiE4imaxEii(i32 noundef %18, i32 noundef %23)
  store i32 %24, ptr %5, align 4
  %25 = load i32, ptr %5, align 4
  %26 = getelementptr inbounds %"class.Gluco2::vec", ptr %6, i32 0, i32 2
  %27 = load i32, ptr %26, align 4
  %28 = sub nsw i32 2147483647, %27
  %29 = icmp sgt i32 %25, %28
  br i1 %29, label %46, label %30

30:                                               ; preds = %12
  %31 = getelementptr inbounds %"class.Gluco2::vec", ptr %6, i32 0, i32 0
  %32 = load ptr, ptr %31, align 8
  %33 = load i32, ptr %5, align 4
  %34 = getelementptr inbounds %"class.Gluco2::vec", ptr %6, i32 0, i32 2
  %35 = load i32, ptr %34, align 4
  %36 = add nsw i32 %35, %33
  store i32 %36, ptr %34, align 4
  %37 = sext i32 %36 to i64
  %38 = mul i64 %37, 4
  %39 = call ptr @realloc(ptr noundef %32, i64 noundef %38) #17
  %40 = getelementptr inbounds %"class.Gluco2::vec", ptr %6, i32 0, i32 0
  store ptr %39, ptr %40, align 8
  %41 = icmp eq ptr %39, null
  br i1 %41, label %42, label %48

42:                                               ; preds = %30
  %43 = call ptr @__errno_location() #18
  %44 = load i32, ptr %43, align 4
  %45 = icmp eq i32 %44, 12
  br i1 %45, label %46, label %48

46:                                               ; preds = %42, %12
  %47 = call ptr @__cxa_allocate_exception(i64 1) #3
  call void @__cxa_throw(ptr %47, ptr @_ZTIN6Gluco220OutOfMemoryExceptionE, ptr null) #19
  unreachable

48:                                               ; preds = %42, %30, %11
  ret void
}

; Function Attrs: mustprogress nounwind uwtable
define linkonce_odr i32 @_ZN6Gluco2coENS_3LitE(i32 %0) #2 comdat {
  %2 = alloca %"struct.Gluco2::Lit", align 4
  %3 = alloca %"struct.Gluco2::Lit", align 4
  %4 = getelementptr inbounds %"struct.Gluco2::Lit", ptr %3, i32 0, i32 0
  store i32 %0, ptr %4, align 4
  %5 = getelementptr inbounds %"struct.Gluco2::Lit", ptr %3, i32 0, i32 0
  %6 = load i32, ptr %5, align 4
  %7 = xor i32 %6, 1
  %8 = getelementptr inbounds %"struct.Gluco2::Lit", ptr %2, i32 0, i32 0
  store i32 %7, ptr %8, align 4
  %9 = getelementptr inbounds %"struct.Gluco2::Lit", ptr %2, i32 0, i32 0
  %10 = load i32, ptr %9, align 4
  ret i32 %10
}

; Function Attrs: mustprogress nounwind uwtable
define linkonce_odr noundef zeroext i1 @_ZNK6Gluco25lboolneES0_(ptr noundef nonnull align 1 dereferenceable(1) %0, i8 %1) #2 comdat align 2 {
  %3 = alloca %"class.Gluco2::lbool", align 1
  %4 = alloca ptr, align 8
  %5 = alloca %"class.Gluco2::lbool", align 1
  %6 = getelementptr inbounds %"class.Gluco2::lbool", ptr %3, i32 0, i32 0
  store i8 %1, ptr %6, align 1
  store ptr %0, ptr %4, align 8
  %7 = load ptr, ptr %4, align 8
  call void @llvm.memcpy.p0.p0.i64(ptr align 1 %5, ptr align 1 %3, i64 1, i1 false)
  %8 = getelementptr inbounds %"class.Gluco2::lbool", ptr %5, i32 0, i32 0
  %9 = load i8, ptr %8, align 1
  %10 = call noundef zeroext i1 @_ZNK6Gluco25lbooleqES0_(ptr noundef nonnull align 1 dereferenceable(1) %7, i8 %9)
  %11 = xor i1 %10, true
  ret i1 %11
}

; Function Attrs: mustprogress nounwind uwtable
define linkonce_odr noundef zeroext i1 @_ZNK6Gluco25lbooleqES0_(ptr noundef nonnull align 1 dereferenceable(1) %0, i8 %1) #2 comdat align 2 {
  %3 = alloca %"class.Gluco2::lbool", align 1
  %4 = alloca ptr, align 8
  %5 = getelementptr inbounds %"class.Gluco2::lbool", ptr %3, i32 0, i32 0
  store i8 %1, ptr %5, align 1
  store ptr %0, ptr %4, align 8
  %6 = load ptr, ptr %4, align 8
  %7 = getelementptr inbounds %"class.Gluco2::lbool", ptr %3, i32 0, i32 0
  %8 = load i8, ptr %7, align 1
  %9 = zext i8 %8 to i32
  %10 = and i32 %9, 2
  %11 = getelementptr inbounds %"class.Gluco2::lbool", ptr %6, i32 0, i32 0
  %12 = load i8, ptr %11, align 1
  %13 = zext i8 %12 to i32
  %14 = and i32 %13, 2
  %15 = and i32 %10, %14
  %16 = getelementptr inbounds %"class.Gluco2::lbool", ptr %3, i32 0, i32 0
  %17 = load i8, ptr %16, align 1
  %18 = zext i8 %17 to i32
  %19 = and i32 %18, 2
  %20 = icmp ne i32 %19, 0
  %21 = xor i1 %20, true
  %22 = zext i1 %21 to i32
  %23 = getelementptr inbounds %"class.Gluco2::lbool", ptr %6, i32 0, i32 0
  %24 = load i8, ptr %23, align 1
  %25 = zext i8 %24 to i32
  %26 = getelementptr inbounds %"class.Gluco2::lbool", ptr %3, i32 0, i32 0
  %27 = load i8, ptr %26, align 1
  %28 = zext i8 %27 to i32
  %29 = icmp eq i32 %25, %28
  %30 = zext i1 %29 to i32
  %31 = and i32 %22, %30
  %32 = or i32 %15, %31
  %33 = icmp ne i32 %32, 0
  ret i1 %33
}

; Function Attrs: mustprogress nounwind uwtable
define linkonce_odr void @_ZN6Gluco25lboolC2Eh(ptr noundef nonnull align 1 dereferenceable(1) %0, i8 noundef zeroext %1) unnamed_addr #2 comdat align 2 {
  %3 = alloca ptr, align 8
  %4 = alloca i8, align 1
  store ptr %0, ptr %3, align 8
  store i8 %1, ptr %4, align 1
  %5 = load ptr, ptr %3, align 8
  %6 = getelementptr inbounds %"class.Gluco2::lbool", ptr %5, i32 0, i32 0
  %7 = load i8, ptr %4, align 1
  store i8 %7, ptr %6, align 1
  ret void
}

; Function Attrs: mustprogress uwtable
define linkonce_odr i8 @_ZNK6Gluco26Solver5valueENS_3LitE(ptr noundef nonnull align 8 dereferenceable(1416) %0, i32 %1) #1 comdat align 2 {
  %3 = alloca %"class.Gluco2::lbool", align 1
  %4 = alloca %"struct.Gluco2::Lit", align 4
  %5 = alloca ptr, align 8
  %6 = alloca %"struct.Gluco2::Lit", align 4
  %7 = alloca %"struct.Gluco2::Lit", align 4
  %8 = getelementptr inbounds %"struct.Gluco2::Lit", ptr %4, i32 0, i32 0
  store i32 %1, ptr %8, align 4
  store ptr %0, ptr %5, align 8
  %9 = load ptr, ptr %5, align 8
  %10 = getelementptr inbounds %"class.Gluco2::Solver", ptr %9, i32 0, i32 68
  call void @llvm.memcpy.p0.p0.i64(ptr align 4 %6, ptr align 4 %4, i64 4, i1 false)
  %11 = getelementptr inbounds %"struct.Gluco2::Lit", ptr %6, i32 0, i32 0
  %12 = load i32, ptr %11, align 4
  %13 = call noundef i32 @_ZN6Gluco23varENS_3LitE(i32 %12)
  %14 = call noundef nonnull align 1 dereferenceable(1) ptr @_ZNK6Gluco23vecINS_5lboolEEixEi(ptr noundef nonnull align 8 dereferenceable(16) %10, i32 noundef %13)
  call void @llvm.memcpy.p0.p0.i64(ptr align 4 %7, ptr align 4 %4, i64 4, i1 false)
  %15 = getelementptr inbounds %"struct.Gluco2::Lit", ptr %7, i32 0, i32 0
  %16 = load i32, ptr %15, align 4
  %17 = call noundef zeroext i1 @_ZN6Gluco24signENS_3LitE(i32 %16)
  %18 = call i8 @_ZNK6Gluco25lbooleoEb(ptr noundef nonnull align 1 dereferenceable(1) %14, i1 noundef zeroext %17)
  %19 = getelementptr inbounds %"class.Gluco2::lbool", ptr %3, i32 0, i32 0
  store i8 %18, ptr %19, align 1
  %20 = getelementptr inbounds %"class.Gluco2::lbool", ptr %3, i32 0, i32 0
  %21 = load i8, ptr %20, align 1
  ret i8 %21
}

; Function Attrs: mustprogress nounwind uwtable
define linkonce_odr noundef nonnull align 4 dereferenceable(4) ptr @_ZNK6Gluco23vecINS_3LitEEixEi(ptr noundef nonnull align 8 dereferenceable(16) %0, i32 noundef %1) #2 comdat align 2 {
  %3 = alloca ptr, align 8
  %4 = alloca i32, align 4
  store ptr %0, ptr %3, align 8
  store i32 %1, ptr %4, align 4
  %5 = load ptr, ptr %3, align 8
  %6 = getelementptr inbounds %"class.Gluco2::vec.0", ptr %5, i32 0, i32 0
  %7 = load ptr, ptr %6, align 8
  %8 = load i32, ptr %4, align 4
  %9 = sext i32 %8 to i64
  %10 = getelementptr inbounds %"struct.Gluco2::Lit", ptr %7, i64 %9
  ret ptr %10
}

; Function Attrs: mustprogress uwtable
define linkonce_odr void @_ZN6Gluco23vecIiE4pushERKi(ptr noundef nonnull align 8 dereferenceable(16) %0, ptr noundef nonnull align 4 dereferenceable(4) %1) #1 comdat align 2 {
  %3 = alloca ptr, align 8
  %4 = alloca ptr, align 8
  store ptr %0, ptr %3, align 8
  store ptr %1, ptr %4, align 8
  %5 = load ptr, ptr %3, align 8
  %6 = getelementptr inbounds %"class.Gluco2::vec", ptr %5, i32 0, i32 1
  %7 = load i32, ptr %6, align 8
  %8 = getelementptr inbounds %"class.Gluco2::vec", ptr %5, i32 0, i32 2
  %9 = load i32, ptr %8, align 4
  %10 = icmp eq i32 %7, %9
  br i1 %10, label %11, label %15

11:                                               ; preds = %2
  %12 = getelementptr inbounds %"class.Gluco2::vec", ptr %5, i32 0, i32 1
  %13 = load i32, ptr %12, align 8
  %14 = add nsw i32 %13, 1
  call void @_ZN6Gluco23vecIiE8capacityEi(ptr noundef nonnull align 8 dereferenceable(16) %5, i32 noundef %14)
  br label %15

15:                                               ; preds = %11, %2
  %16 = load ptr, ptr %4, align 8
  %17 = load i32, ptr %16, align 4
  %18 = getelementptr inbounds %"class.Gluco2::vec", ptr %5, i32 0, i32 0
  %19 = load ptr, ptr %18, align 8
  %20 = getelementptr inbounds %"class.Gluco2::vec", ptr %5, i32 0, i32 1
  %21 = load i32, ptr %20, align 8
  %22 = add nsw i32 %21, 1
  store i32 %22, ptr %20, align 8
  %23 = sext i32 %21 to i64
  %24 = getelementptr inbounds i32, ptr %19, i64 %23
  store i32 %17, ptr %24, align 4
  ret void
}

; Function Attrs: mustprogress nounwind uwtable
define linkonce_odr noundef i32 @_ZNK6Gluco23vecINS_3LitEE4sizeEv(ptr noundef nonnull align 8 dereferenceable(16) %0) #2 comdat align 2 {
  %2 = alloca ptr, align 8
  store ptr %0, ptr %2, align 8
  %3 = load ptr, ptr %2, align 8
  %4 = getelementptr inbounds %"class.Gluco2::vec.0", ptr %3, i32 0, i32 1
  %5 = load i32, ptr %4, align 8
  ret i32 %5
}

; Function Attrs: mustprogress uwtable
define noundef zeroext i1 @_ZN6Gluco210SimpSolver7impliedERKNS_3vecINS_3LitEEE(ptr noundef nonnull align 8 dereferenceable(1684) %0, ptr noundef nonnull align 8 dereferenceable(16) %1) #1 align 2 {
  %3 = alloca i1, align 1
  %4 = alloca ptr, align 8
  %5 = alloca ptr, align 8
  %6 = alloca i32, align 4
  %7 = alloca i32, align 4
  %8 = alloca %"class.Gluco2::lbool", align 1
  %9 = alloca %"struct.Gluco2::Lit", align 4
  %10 = alloca %"class.Gluco2::lbool", align 1
  %11 = alloca %"class.Gluco2::lbool", align 1
  %12 = alloca %"struct.Gluco2::Lit", align 4
  %13 = alloca %"class.Gluco2::lbool", align 1
  %14 = alloca %"struct.Gluco2::Lit", align 4
  %15 = alloca %"struct.Gluco2::Lit", align 4
  %16 = alloca i8, align 1
  store ptr %0, ptr %4, align 8
  store ptr %1, ptr %5, align 8
  %17 = load ptr, ptr %4, align 8
  %18 = getelementptr inbounds %"class.Gluco2::Solver", ptr %17, i32 0, i32 73
  %19 = getelementptr inbounds %"class.Gluco2::Solver", ptr %17, i32 0, i32 71
  %20 = call noundef i32 @_ZNK6Gluco23vecINS_3LitEE4sizeEv(ptr noundef nonnull align 8 dereferenceable(16) %19)
  store i32 %20, ptr %6, align 4
  call void @_ZN6Gluco23vecIiE4pushERKi(ptr noundef nonnull align 8 dereferenceable(16) %18, ptr noundef nonnull align 4 dereferenceable(4) %6)
  store i32 0, ptr %7, align 4
  br label %21

21:                                               ; preds = %61, %2
  %22 = load i32, ptr %7, align 4
  %23 = load ptr, ptr %5, align 8
  %24 = call noundef i32 @_ZNK6Gluco23vecINS_3LitEE4sizeEv(ptr noundef nonnull align 8 dereferenceable(16) %23)
  %25 = icmp slt i32 %22, %24
  br i1 %25, label %26, label %64

26:                                               ; preds = %21
  %27 = load ptr, ptr %5, align 8
  %28 = load i32, ptr %7, align 4
  %29 = call noundef nonnull align 4 dereferenceable(4) ptr @_ZNK6Gluco23vecINS_3LitEEixEi(ptr noundef nonnull align 8 dereferenceable(16) %27, i32 noundef %28)
  call void @llvm.memcpy.p0.p0.i64(ptr align 4 %9, ptr align 4 %29, i64 4, i1 false)
  %30 = getelementptr inbounds %"struct.Gluco2::Lit", ptr %9, i32 0, i32 0
  %31 = load i32, ptr %30, align 4
  %32 = call i8 @_ZNK6Gluco26Solver5valueENS_3LitE(ptr noundef nonnull align 8 dereferenceable(1416) %17, i32 %31)
  %33 = getelementptr inbounds %"class.Gluco2::lbool", ptr %8, i32 0, i32 0
  store i8 %32, ptr %33, align 1
  call void @_ZN6Gluco25lboolC2Eh(ptr noundef nonnull align 1 dereferenceable(1) %10, i8 noundef zeroext 0)
  %34 = getelementptr inbounds %"class.Gluco2::lbool", ptr %10, i32 0, i32 0
  %35 = load i8, ptr %34, align 1
  %36 = call noundef zeroext i1 @_ZNK6Gluco25lbooleqES0_(ptr noundef nonnull align 1 dereferenceable(1) %8, i8 %35)
  br i1 %36, label %37, label %38

37:                                               ; preds = %26
  call void @_ZN6Gluco26Solver11cancelUntilEi(ptr noundef nonnull align 8 dereferenceable(1416) %17, i32 noundef 0)
  store i1 false, ptr %3, align 1
  br label %70

38:                                               ; preds = %26
  %39 = load ptr, ptr %5, align 8
  %40 = load i32, ptr %7, align 4
  %41 = call noundef nonnull align 4 dereferenceable(4) ptr @_ZNK6Gluco23vecINS_3LitEEixEi(ptr noundef nonnull align 8 dereferenceable(16) %39, i32 noundef %40)
  call void @llvm.memcpy.p0.p0.i64(ptr align 4 %12, ptr align 4 %41, i64 4, i1 false)
  %42 = getelementptr inbounds %"struct.Gluco2::Lit", ptr %12, i32 0, i32 0
  %43 = load i32, ptr %42, align 4
  %44 = call i8 @_ZNK6Gluco26Solver5valueENS_3LitE(ptr noundef nonnull align 8 dereferenceable(1416) %17, i32 %43)
  %45 = getelementptr inbounds %"class.Gluco2::lbool", ptr %11, i32 0, i32 0
  store i8 %44, ptr %45, align 1
  call void @_ZN6Gluco25lboolC2Eh(ptr noundef nonnull align 1 dereferenceable(1) %13, i8 noundef zeroext 1)
  %46 = getelementptr inbounds %"class.Gluco2::lbool", ptr %13, i32 0, i32 0
  %47 = load i8, ptr %46, align 1
  %48 = call noundef zeroext i1 @_ZNK6Gluco25lboolneES0_(ptr noundef nonnull align 1 dereferenceable(1) %11, i8 %47)
  br i1 %48, label %49, label %59

49:                                               ; preds = %38
  %50 = load ptr, ptr %5, align 8
  %51 = load i32, ptr %7, align 4
  %52 = call noundef nonnull align 4 dereferenceable(4) ptr @_ZNK6Gluco23vecINS_3LitEEixEi(ptr noundef nonnull align 8 dereferenceable(16) %50, i32 noundef %51)
  call void @llvm.memcpy.p0.p0.i64(ptr align 4 %15, ptr align 4 %52, i64 4, i1 false)
  %53 = getelementptr inbounds %"struct.Gluco2::Lit", ptr %15, i32 0, i32 0
  %54 = load i32, ptr %53, align 4
  %55 = call i32 @_ZN6Gluco2coENS_3LitE(i32 %54)
  %56 = getelementptr inbounds %"struct.Gluco2::Lit", ptr %14, i32 0, i32 0
  store i32 %55, ptr %56, align 4
  %57 = getelementptr inbounds %"struct.Gluco2::Lit", ptr %14, i32 0, i32 0
  %58 = load i32, ptr %57, align 4
  call void @_ZN6Gluco26Solver16uncheckedEnqueueENS_3LitEj(ptr noundef nonnull align 8 dereferenceable(1416) %17, i32 %58, i32 noundef -1)
  br label %59

59:                                               ; preds = %49, %38
  br label %60

60:                                               ; preds = %59
  br label %61

61:                                               ; preds = %60
  %62 = load i32, ptr %7, align 4
  %63 = add nsw i32 %62, 1
  store i32 %63, ptr %7, align 4
  br label %21, !llvm.loop !13

64:                                               ; preds = %21
  %65 = call noundef i32 @_ZN6Gluco26Solver9propagateEv(ptr noundef nonnull align 8 dereferenceable(1416) %17)
  %66 = icmp ne i32 %65, -1
  %67 = zext i1 %66 to i8
  store i8 %67, ptr %16, align 1
  call void @_ZN6Gluco26Solver11cancelUntilEi(ptr noundef nonnull align 8 dereferenceable(1416) %17, i32 noundef 0)
  %68 = load i8, ptr %16, align 1
  %69 = trunc i8 %68 to i1
  store i1 %69, ptr %3, align 1
  br label %70

70:                                               ; preds = %64, %37
  %71 = load i1, ptr %3, align 1
  ret i1 %71
}